; Function Attrs: nounwind uwtable
define dso_local noundef ptr @copy_pathtarget(ptr noundef readonly captures(none) %0) local_unnamed_addr #0 {
  %2 = tail call noundef ptr @palloc0(i64 noundef 48) #10
  store i32 276, ptr %2, align 4
  tail call void @llvm.memcpy.p0.p0.i64(ptr noundef nonnull align 8 dereferenceable(48) %2, ptr noundef nonnull align 8 dereferenceable(48) %0, i64 48, i1 false)
  %3 = getelementptr inbounds nuw i8, ptr %0, i64 8
  %4 = load ptr, ptr %3, align 8
  %5 = tail call ptr @list_copy(ptr noundef %4) #10
  %6 = getelementptr inbounds nuw i8, ptr %2, i64 8
  store ptr %5, ptr %6, align 8
  %7 = getelementptr inbounds nuw i8, ptr %0, i64 16
  %8 = load ptr, ptr %7, align 8
  %.not = icmp eq ptr %8, null
  br i1 %.not, label %20, label %9

9:                                                ; preds = %1
  %10 = load ptr, ptr %3, align 8
  %.not.i = icmp eq ptr %10, null
  br i1 %.not.i, label %list_length.exit, label %11

11:                                               ; preds = %9
  %12 = getelementptr inbounds nuw i8, ptr %10, i64 4
  %13 = load i32, ptr %12, align 4
  %14 = sext i32 %13 to i64
  %15 = shl nsw i64 %14, 2
  br label %list_length.exit

list_length.exit:                                 ; preds = %9, %11
  %16 = phi i64 [ %15, %11 ], [ 0, %9 ]
  %17 = tail call ptr @palloc(i64 noundef %16) #10
  %18 = getelementptr inbounds nuw i8, ptr %2, i64 16
  store ptr %17, ptr %18, align 8
  %19 = load ptr, ptr %7, align 8
  tail call void @llvm.memcpy.p0.p0.i64(ptr align 4 %17, ptr align 4 %19, i64 %16, i1 false)
  br label %20

20:                                               ; preds = %list_length.exit, %1
  ret ptr %2
}